target datalayout = "e-m:e-p270:32:32-p271:32:32-p272:64:64-i64:64-i128:128-f80:128-n8:16:32:64-S128"
target triple = "x86_64-pc-linux-gnu"

; Function Attrs: cold nounwind optsize uwtable
define internal i32 @build_vlc(ptr noundef %0, i32 noundef %1, ptr noundef %2, ptr noundef %3, i32 noundef %4, i32 noundef %5, ptr noundef %6) #0 {
  %8 = alloca ptr, align 8
  %9 = alloca i32, align 4
  %10 = alloca ptr, align 8
  %11 = alloca ptr, align 8
  %12 = alloca i32, align 4
  %13 = alloca i32, align 4
  %14 = alloca ptr, align 8
  %15 = alloca [520 x i8], align 16
  %16 = alloca i32, align 4
  %17 = alloca i32, align 4
  %18 = alloca i32, align 4
  %19 = alloca i32, align 4
  store ptr %0, ptr %8, align 8, !tbaa !134
  store i32 %1, ptr %9, align 4, !tbaa !31
  store ptr %2, ptr %10, align 8, !tbaa !82
  store ptr %3, ptr %11, align 8, !tbaa !115
  store i32 %4, ptr %12, align 4, !tbaa !31
  store i32 %5, ptr %13, align 4, !tbaa !31
  store ptr %6, ptr %14, align 8, !tbaa !115
  call void @llvm.lifetime.start.p0(i64 520, ptr %15) #11
  call void @llvm.lifetime.start.p0(i64 4, ptr %16) #11
  store i32 0, ptr %16, align 4, !tbaa !31
  call void @llvm.lifetime.start.p0(i64 4, ptr %17) #11
  store i32 0, ptr %17, align 4, !tbaa !31
  br label %20

20:                                               ; preds = %49, %7
  %21 = load i32, ptr %17, align 4, !tbaa !31
  %22 = icmp slt i32 %21, 16
  br i1 %22, label %24, label %23

23:                                               ; preds = %20
  store i32 2, ptr %18, align 4
  call void @llvm.lifetime.end.p0(i64 4, ptr %17) #11
  br label %52

24:                                               ; preds = %20
  call void @llvm.lifetime.start.p0(i64 4, ptr %19) #11
  %25 = load i32, ptr %16, align 4, !tbaa !31
  %26 = load ptr, ptr %10, align 8, !tbaa !82
  %27 = load i32, ptr %17, align 4, !tbaa !31
  %28 = sext i32 %27 to i64
  %29 = getelementptr inbounds i8, ptr %26, i64 %28
  %30 = load i8, ptr %29, align 1, !tbaa !94
  %31 = zext i8 %30 to i32
  %32 = add i32 %25, %31
  store i32 %32, ptr %19, align 4, !tbaa !31
  br label %33

33:                                               ; preds = %45, %24
  %34 = load i32, ptr %16, align 4, !tbaa !31
  %35 = load i32, ptr %19, align 4, !tbaa !31
  %36 = icmp ult i32 %34, %35
  br i1 %36, label %38, label %37

37:                                               ; preds = %33
  store i32 5, ptr %18, align 4
  call void @llvm.lifetime.end.p0(i64 4, ptr %19) #11
  br label %48

38:                                               ; preds = %33
  %39 = load i32, ptr %17, align 4, !tbaa !31
  %40 = add nsw i32 %39, 1
  %41 = trunc i32 %40 to i8
  %42 = load i32, ptr %16, align 4, !tbaa !31
  %43 = zext i32 %42 to i64
  %44 = getelementptr inbounds nuw [520 x i8], ptr %15, i64 0, i64 %43
  store i8 %41, ptr %44, align 1, !tbaa !94
  br label %45

45:                                               ; preds = %38
  %46 = load i32, ptr %16, align 4, !tbaa !31
  %47 = add i32 %46, 1
  store i32 %47, ptr %16, align 4, !tbaa !31
  br label %33, !llvm.loop !136

48:                                               ; preds = %37
  br label %49

49:                                               ; preds = %48
  %50 = load i32, ptr %17, align 4, !tbaa !31
  %51 = add nsw i32 %50, 1
  store i32 %51, ptr %17, align 4, !tbaa !31
  br label %20, !llvm.loop !137

52:                                               ; preds = %23
  %53 = load ptr, ptr %8, align 8, !tbaa !134
  %54 = load i32, ptr %9, align 4, !tbaa !31
  %55 = load i32, ptr %16, align 4, !tbaa !31
  %56 = getelementptr inbounds [520 x i8], ptr %15, i64 0, i64 0
  %57 = load ptr, ptr %11, align 8, !tbaa !115
  %58 = load i32, ptr %12, align 4, !tbaa !31
  %59 = load i32, ptr %12, align 4, !tbaa !31
  %60 = load i32, ptr %13, align 4, !tbaa !31
  %61 = load ptr, ptr %14, align 8, !tbaa !115
  %62 = call i32 @ff_vlc_init_from_lengths(ptr noundef %53, i32 noundef %54, i32 noundef %55, ptr noundef %56, i32 noundef 1, ptr noundef %57, i32 noundef %58, i32 noundef %59, i32 noundef %60, i32 noundef 0, ptr noundef %61)
  store i32 1, ptr %18, align 4
  call void @llvm.lifetime.end.p0(i64 4, ptr %16) #11
  call void @llvm.lifetime.end.p0(i64 520, ptr %15) #11
  ret i32 %62
}