; Function Attrs: cold nounwind optsize uwtable
define internal fastcc i32 @build_vlc(ptr noundef %0, i32 noundef %1, ptr noundef readonly captures(none) %2, ptr noundef %3, i32 noundef range(i32 1, 3) %4, i32 noundef range(i32 -12, 1) %5, ptr noundef %6) unnamed_addr #0 {
  %8 = alloca [520 x i8], align 16
  call void @llvm.lifetime.start.p0(i64 520, ptr nonnull %8) #13
  br label %11

9:                                                ; preds = %._crit_edge
  %10 = call i32 @ff_vlc_init_from_lengths(ptr noundef %0, i32 noundef %1, i32 noundef %.1.lcssa, ptr noundef nonnull %8, i32 noundef 1, ptr noundef %3, i32 noundef %4, i32 noundef %4, i32 noundef %5, i32 noundef 0, ptr noundef %6) #13
  call void @llvm.lifetime.end.p0(i64 520, ptr nonnull %8) #13
  ret i32 %10

11:                                               ; preds = %7, %._crit_edge
  %indvars.iv = phi i64 [ 0, %7 ], [ %indvars.iv.next, %._crit_edge ]
  %.020 = phi i32 [ 0, %7 ], [ %.1.lcssa, %._crit_edge ]
  %12 = getelementptr inbounds nuw i8, ptr %2, i64 %indvars.iv
  %13 = load i8, ptr %12, align 1, !tbaa !40
  %14 = zext i8 %13 to i32
  %15 = add i32 %.020, %14
  %16 = icmp ult i32 %.020, %15
  br i1 %16, label %.lr.ph, label %._crit_edge

.lr.ph:                                           ; preds = %11
  %17 = trunc i64 %indvars.iv to i8
  %18 = add nuw nsw i8 %17, 1
  %19 = zext i32 %.020 to i64
  %scevgep = getelementptr i8, ptr %8, i64 %19
  %20 = add nsw i32 %14, -1
  %21 = zext i32 %20 to i64
  %22 = add nuw nsw i64 %21, 1
  call void @llvm.memset.p0.i64(ptr noundef nonnull align 1 dereferenceable(1) %scevgep, i8 %18, i64 %22, i1 false), !tbaa !40
  %23 = add i32 %.020, %14
  br label %._crit_edge

._crit_edge:                                      ; preds = %.lr.ph, %11
  %.1.lcssa = phi i32 [ %.020, %11 ], [ %23, %.lr.ph ]
  %indvars.iv.next = add nuw nsw i64 %indvars.iv, 1
  %exitcond.not = icmp eq i64 %indvars.iv.next, 16
  br i1 %exitcond.not, label %9, label %11, !llvm.loop !123
}